target datalayout = "e-m:e-p270:32:32-p271:32:32-p272:64:64-i64:64-i128:128-f80:128-n8:16:32:64-S128"
target triple = "x86_64-pc-linux-gnu"

%struct._object = type { %union.anon, ptr }
%union.anon = type { i64 }
%struct.PyVarObject = type { %struct._object, i64 }

@_Py_NoneStruct = external global %struct._object, align 8

; Function Attrs: inlinehint nounwind uwtable
define internal i64 @Py_SIZE(ptr noundef %0) #4 {
  %2 = alloca ptr, align 8
  store ptr %0, ptr %2, align 8, !tbaa !8
  %3 = load ptr, ptr %2, align 8, !tbaa !8
  %4 = getelementptr inbounds nuw %struct.PyVarObject, ptr %3, i32 0, i32 1
  %5 = load i64, ptr %4, align 8, !tbaa !48
  ret i64 %5
}

; Function Attrs: inlinehint nounwind uwtable
define internal i64 @PyTuple_GET_SIZE(ptr noundef %0) #4 {
  %2 = alloca ptr, align 8
  %3 = alloca ptr, align 8
  store ptr %0, ptr %2, align 8, !tbaa !8
  call void @llvm.lifetime.start.p0(i64 8, ptr %3) #10
  %4 = load ptr, ptr %2, align 8, !tbaa !8
  store ptr %4, ptr %3, align 8, !tbaa !10
  %5 = load ptr, ptr %3, align 8, !tbaa !10
  %6 = call i64 @Py_SIZE(ptr noundef %5)
  call void @llvm.lifetime.end.p0(i64 8, ptr %3) #10
  ret i64 %6
}

; Function Attrs: nounwind uwtable
define internal ptr @_multiprocessing_SemLock_acquire(ptr noundef %0, ptr noundef %1, i64 noundef %2, ptr noundef %3) #0 {
  %5 = alloca ptr, align 8
  %6 = alloca ptr, align 8
  %7 = alloca i64, align 8
  %8 = alloca ptr, align 8
  %9 = alloca ptr, align 8
  %10 = alloca [2 x ptr], align 16
  %11 = alloca i64, align 8
  %12 = alloca i32, align 4
  %13 = alloca ptr, align 8
  store ptr %0, ptr %5, align 8, !tbaa !8
  store ptr %1, ptr %6, align 8, !tbaa !27
  store i64 %2, ptr %7, align 8, !tbaa !26
  store ptr %3, ptr %8, align 8, !tbaa !8
  call void @llvm.lifetime.start.p0(i64 8, ptr %9) #10
  store ptr null, ptr %9, align 8, !tbaa !8
  call void @llvm.lifetime.start.p0(i64 16, ptr %10) #10
  call void @llvm.lifetime.start.p0(i64 8, ptr %11) #10
  %14 = load i64, ptr %7, align 8, !tbaa !26
  %15 = load ptr, ptr %8, align 8, !tbaa !8
  %16 = icmp ne ptr %15, null
  br i1 %16, label %17, label %20

17:                                               ; preds = %4
  %18 = load ptr, ptr %8, align 8, !tbaa !8
  %19 = call i64 @PyTuple_GET_SIZE(ptr noundef %18)
  br label %21

20:                                               ; preds = %4
  br label %21

21:                                               ; preds = %20, %17
  %22 = phi i64 [ %19, %17 ], [ 0, %20 ]
  %23 = add i64 %14, %22
  %24 = sub i64 %23, 0
  store i64 %24, ptr %11, align 8, !tbaa !26
  call void @llvm.lifetime.start.p0(i64 4, ptr %12) #10
  store i32 1, ptr %12, align 4, !tbaa !29
  call void @llvm.lifetime.start.p0(i64 8, ptr %13) #10
  store ptr @_Py_NoneStruct, ptr %13, align 8, !tbaa !8
  %25 = load ptr, ptr %8, align 8, !tbaa !8
  %26 = icmp eq ptr %25, null
  br i1 %26, label %27, label %38

27:                                               ; preds = %21
  %28 = load i64, ptr %7, align 8, !tbaa !26
  %29 = icmp sle i64 0, %28
  br i1 %29, label %30, label %38

30:                                               ; preds = %27
  %31 = load i64, ptr %7, align 8, !tbaa !26
  %32 = icmp sle i64 %31, 2
  br i1 %32, label %33, label %38

33:                                               ; preds = %30
  %34 = load ptr, ptr %6, align 8, !tbaa !27
  %35 = icmp ne ptr %34, null
  br i1 %35, label %36, label %38

36:                                               ; preds = %33
  %37 = load ptr, ptr %6, align 8, !tbaa !27
  br label %44

38:                                               ; preds = %33, %30, %27, %21
  %39 = load ptr, ptr %6, align 8, !tbaa !27
  %40 = load i64, ptr %7, align 8, !tbaa !26
  %41 = load ptr, ptr %8, align 8, !tbaa !8
  %42 = getelementptr inbounds [2 x ptr], ptr %10, i64 0, i64 0
  %43 = call ptr @_PyArg_UnpackKeywords(ptr noundef %39, i64 noundef %40, ptr noundef null, ptr noundef %41, ptr noundef @_multiprocessing_SemLock_acquire._parser, i32 noundef 0, i32 noundef 2, i32 noundef 0, i32 noundef 0, ptr noundef %42)
  br label %44

44:                                               ; preds = %38, %36
  %45 = phi ptr [ %37, %36 ], [ %43, %38 ]
  store ptr %45, ptr %6, align 8, !tbaa !27
  %46 = load ptr, ptr %6, align 8, !tbaa !27
  %47 = icmp ne ptr %46, null
  br i1 %47, label %49, label %48

48:                                               ; preds = %44
  br label %81

49:                                               ; preds = %44
  %50 = load i64, ptr %11, align 8, !tbaa !26
  %51 = icmp ne i64 %50, 0
  br i1 %51, label %53, label %52

52:                                               ; preds = %49
  br label %76

53:                                               ; preds = %49
  %54 = load ptr, ptr %6, align 8, !tbaa !27
  %55 = getelementptr ptr, ptr %54, i64 0
  %56 = load ptr, ptr %55, align 8, !tbaa !8
  %57 = icmp ne ptr %56, null
  br i1 %57, label %58, label %72

58:                                               ; preds = %53
  %59 = load ptr, ptr %6, align 8, !tbaa !27
  %60 = getelementptr ptr, ptr %59, i64 0
  %61 = load ptr, ptr %60, align 8, !tbaa !8
  %62 = call i32 @PyObject_IsTrue(ptr noundef %61)
  store i32 %62, ptr %12, align 4, !tbaa !29
  %63 = load i32, ptr %12, align 4, !tbaa !29
  %64 = icmp slt i32 %63, 0
  br i1 %64, label %65, label %66

65:                                               ; preds = %58
  br label %81

66:                                               ; preds = %58
  %67 = load i64, ptr %11, align 8, !tbaa !26
  %68 = add i64 %67, -1
  store i64 %68, ptr %11, align 8, !tbaa !26
  %69 = icmp ne i64 %68, 0
  br i1 %69, label %71, label %70

70:                                               ; preds = %66
  br label %76

71:                                               ; preds = %66
  br label %72

72:                                               ; preds = %71, %53
  %73 = load ptr, ptr %6, align 8, !tbaa !27
  %74 = getelementptr ptr, ptr %73, i64 1
  %75 = load ptr, ptr %74, align 8, !tbaa !8
  store ptr %75, ptr %13, align 8, !tbaa !8
  br label %76

76:                                               ; preds = %72, %70, %52
  %77 = load ptr, ptr %5, align 8, !tbaa !8
  %78 = load i32, ptr %12, align 4, !tbaa !29
  %79 = load ptr, ptr %13, align 8, !tbaa !8
  %80 = call ptr @_multiprocessing_SemLock_acquire_impl(ptr noundef %77, i32 noundef %78, ptr noundef %79)
  store ptr %80, ptr %9, align 8, !tbaa !8
  br label %81

81:                                               ; preds = %76, %65, %48
  %82 = load ptr, ptr %9, align 8, !tbaa !8
  call void @llvm.lifetime.end.p0(i64 8, ptr %13) #10
  call void @llvm.lifetime.end.p0(i64 4, ptr %12) #10
  call void @llvm.lifetime.end.p0(i64 8, ptr %11) #10
  call void @llvm.lifetime.end.p0(i64 16, ptr %10) #10
  call void @llvm.lifetime.end.p0(i64 8, ptr %9) #10
  ret ptr %82
}