; Function Attrs: nounwind uwtable
define internal ptr @_multiprocessing_SemLock_acquire(ptr noundef captures(none) %0, ptr noundef %1, i64 noundef %2, ptr noundef %3) #0 {
  %5 = alloca [2 x ptr], align 16
  call void @llvm.lifetime.start.p0(i64 16, ptr nonnull %5) #11
  %.not = icmp eq ptr %3, null
  br i1 %.not, label %8, label %.thread

.thread:                                          ; preds = %4
  %6 = getelementptr i8, ptr %3, i64 16
  %.val = load i64, ptr %6, align 8, !tbaa !24
  %7 = add i64 %.val, %2
  br label %11

8:                                                ; preds = %4
  %9 = icmp ult i64 %2, 3
  %10 = icmp ne ptr %1, null
  %or.cond5 = and i1 %10, %9
  br i1 %or.cond5, label %.thread40, label %11

11:                                               ; preds = %8, %.thread
  %12 = phi i64 [ %7, %.thread ], [ %2, %8 ]
  %13 = call ptr @_PyArg_UnpackKeywords(ptr noundef %1, i64 noundef %2, ptr noundef null, ptr noundef %3, ptr noundef nonnull @_multiprocessing_SemLock_acquire._parser, i32 noundef 0, i32 noundef 2, i32 noundef 0, i32 noundef 0, ptr noundef nonnull %5) #11
  %.not34 = icmp eq ptr %13, null
  br i1 %.not34, label %27, label %.thread40

.thread40:                                        ; preds = %8, %11
  %14 = phi ptr [ %13, %11 ], [ %1, %8 ]
  %15 = phi i64 [ %12, %11 ], [ %2, %8 ]
  %.not35 = icmp eq i64 %15, 0
  br i1 %.not35, label %25, label %16

16:                                               ; preds = %.thread40
  %17 = load ptr, ptr %14, align 8, !tbaa !25
  %.not36 = icmp eq ptr %17, null
  br i1 %.not36, label %22, label %18

18:                                               ; preds = %16
  %19 = call i32 @PyObject_IsTrue(ptr noundef nonnull %17) #11
  %20 = icmp slt i32 %19, 0
  br i1 %20, label %27, label %21

21:                                               ; preds = %18
  %.not37 = icmp eq i64 %15, 1
  br i1 %.not37, label %25, label %22

22:                                               ; preds = %21, %16
  %.1 = phi i32 [ %19, %21 ], [ 1, %16 ]
  %23 = getelementptr i8, ptr %14, i64 8
  %24 = load ptr, ptr %23, align 8, !tbaa !25
  br label %25

25:                                               ; preds = %21, %.thread40, %22
  %.026 = phi i32 [ %.1, %22 ], [ %19, %21 ], [ 1, %.thread40 ]
  %.0 = phi ptr [ %24, %22 ], [ @_Py_NoneStruct, %21 ], [ @_Py_NoneStruct, %.thread40 ]
  %26 = call fastcc ptr @_multiprocessing_SemLock_acquire_impl(ptr noundef %0, i32 noundef %.026, ptr noundef %.0)
  br label %27

27:                                               ; preds = %18, %11, %25
  %.027 = phi ptr [ null, %18 ], [ %26, %25 ], [ null, %11 ]
  call void @llvm.lifetime.end.p0(i64 16, ptr nonnull %5) #11
  ret ptr %.027
}